; Function Attrs: mustprogress nounwind uwtable
define hidden noundef zeroext i1 @_ZNK14XCollectedHeap17requires_barriersEP17stackChunkOopDesc(ptr noundef nonnull align 64 dereferenceable(4432) %0, ptr noundef %1) unnamed_addr #1 align 2 {
  %3 = load i32, ptr @_ZN26jdk_internal_vm_StackChunk12_cont_offsetE, align 4
  %4 = ptrtoint ptr %1 to i64
  %5 = getelementptr inbounds i8, ptr %0, i64 192
  %6 = tail call noundef zeroext i1 @_ZNK5XHeap13is_allocatingEm(ptr noundef nonnull align 64 dereferenceable(4088) %5, i64 noundef %4) #9
  br i1 %6, label %7, label %14

7:                                                ; preds = %2
  %8 = sext i32 %3 to i64
  %9 = add nsw i64 %8, %4
  %10 = inttoptr i64 %9 to ptr
  %11 = load i64, ptr %10, align 8
  %12 = load i64, ptr @XAddressBadMask, align 8
  %13 = and i64 %12, %11
  %.not.i = icmp ne i64 %13, 0
  br label %14

14:                                               ; preds = %7, %2
  %.0 = phi i1 [ true, %2 ], [ %.not.i, %7 ]
  ret i1 %.0
}